target datalayout = "e-m:e-p270:32:32-p271:32:32-p272:64:64-i64:64-i128:128-f80:128-n8:16:32:64-S128"
target triple = "x86_64-pc-linux-gnu"

%"class.std::__cxx11::basic_string" = type { %"struct.std::__cxx11::basic_string<char>::_Alloc_hider", i64, %union.anon }
%"struct.std::__cxx11::basic_string<char>::_Alloc_hider" = type { ptr }
%union.anon = type { i64, [8 x i8] }
%"class.std::basic_string_view" = type { i64, ptr }
%"class.std::_Function_base" = type { %"union.std::_Any_data", ptr }
%"union.std::_Any_data" = type { %"union.std::_Nocopy_types" }
%"union.std::_Nocopy_types" = type { { i64, i64 } }
%"class.cm::static_string_view" = type { %"class.std::basic_string_view" }
%"class.std::function.1222" = type { %"class.std::_Function_base", ptr }
%"struct.std::_Vector_base.1251" = type { %"struct.std::_Vector_base<CalculatedStep, std::allocator<CalculatedStep>>::_Vector_impl" }
%"struct.std::_Vector_base<CalculatedStep, std::allocator<CalculatedStep>>::_Vector_impl" = type { %"struct.std::_Vector_base<CalculatedStep, std::allocator<CalculatedStep>>::_Vector_impl_data" }
%"struct.std::_Vector_base<CalculatedStep, std::allocator<CalculatedStep>>::_Vector_impl_data" = type { ptr, ptr, ptr }
%struct.CalculatedStep = type { i32, %"class.cm::static_string_view", %"class.std::__cxx11::basic_string", %"class.std::function.1222" }

; Function Attrs: mustprogress nounwind uwtable
define linkonce_odr dso_local void @_ZNSt14_Function_baseD2Ev(ptr noundef nonnull align 8 dereferenceable(24) %0) unnamed_addr #5 comdat align 2 personality ptr @__gxx_personality_v0 {
  %2 = alloca ptr, align 8
  store ptr %0, ptr %2, align 8
  %3 = load ptr, ptr %2, align 8
  %4 = getelementptr inbounds %"class.std::_Function_base", ptr %3, i32 0, i32 1
  %5 = load ptr, ptr %4, align 8
  %6 = icmp ne ptr %5, null
  br i1 %6, label %7, label %14

7:                                                ; preds = %1
  %8 = getelementptr inbounds %"class.std::_Function_base", ptr %3, i32 0, i32 1
  %9 = load ptr, ptr %8, align 8
  %10 = getelementptr inbounds %"class.std::_Function_base", ptr %3, i32 0, i32 0
  %11 = getelementptr inbounds %"class.std::_Function_base", ptr %3, i32 0, i32 0
  %12 = invoke noundef zeroext i1 %9(ptr noundef nonnull align 8 dereferenceable(16) %10, ptr noundef nonnull align 8 dereferenceable(16) %11, i32 noundef 3)
          to label %13 unwind label %15

13:                                               ; preds = %7
  br label %14

14:                                               ; preds = %13, %1
  ret void

15:                                               ; preds = %7
  %16 = landingpad { ptr, i32 }
          catch ptr null
  %17 = extractvalue { ptr, i32 } %16, 0
  call void @__clang_call_terminate(ptr %17) #20
  unreachable
}

; Function Attrs: mustprogress nounwind uwtable
define linkonce_odr dso_local void @_ZNSt8functionIFivEED2Ev(ptr noundef nonnull align 8 dereferenceable(32) %0) unnamed_addr #5 comdat align 2 {
  %2 = alloca ptr, align 8
  store ptr %0, ptr %2, align 8
  %3 = load ptr, ptr %2, align 8
  call void @_ZNSt14_Function_baseD2Ev(ptr noundef nonnull align 8 dereferenceable(24) %3) #3
  ret void
}

; Function Attrs: mustprogress nounwind uwtable
define internal void @_ZZN5cmake8WorkflowERKNSt7__cxx1112basic_stringIcSt11char_traitsIcESaIcEEENS_19WorkflowListPresetsENS_13WorkflowFreshEEN14CalculatedStepD2Ev(ptr noundef nonnull align 8 dereferenceable(88) %0) unnamed_addr #5 align 2 {
  %2 = alloca ptr, align 8
  store ptr %0, ptr %2, align 8
  %3 = load ptr, ptr %2, align 8
  %4 = getelementptr inbounds %struct.CalculatedStep, ptr %3, i32 0, i32 3
  call void @_ZNSt8functionIFivEED2Ev(ptr noundef nonnull align 8 dereferenceable(32) %4) #3
  %5 = getelementptr inbounds %struct.CalculatedStep, ptr %3, i32 0, i32 2
  call void @_ZNSt7__cxx1112basic_stringIcSt11char_traitsIcESaIcEED1Ev(ptr noundef nonnull align 8 dereferenceable(32) %5) #3
  ret void
}

; Function Attrs: mustprogress nounwind uwtable
define internal void @_ZNSt15__new_allocatorIZN5cmake8WorkflowERKNSt7__cxx1112basic_stringIcSt11char_traitsIcESaIcEEENS0_19WorkflowListPresetsENS0_13WorkflowFreshEE14CalculatedStepED2Ev(ptr noundef nonnull align 1 dereferenceable(1) %0) unnamed_addr #5 align 2 {
  %2 = alloca ptr, align 8
  store ptr %0, ptr %2, align 8
  ret void
}

; Function Attrs: mustprogress nounwind uwtable
define internal void @_ZNSt15__new_allocatorIZN5cmake8WorkflowERKNSt7__cxx1112basic_stringIcSt11char_traitsIcESaIcEEENS0_19WorkflowListPresetsENS0_13WorkflowFreshEE14CalculatedStepE10deallocateEPSB_m(ptr noundef nonnull align 1 dereferenceable(1) %0, ptr noundef %1, i64 noundef %2) #5 align 2 {
  %4 = alloca ptr, align 8
  %5 = alloca ptr, align 8
  %6 = alloca i64, align 8
  store ptr %0, ptr %4, align 8
  store ptr %1, ptr %5, align 8
  store i64 %2, ptr %6, align 8
  %7 = load ptr, ptr %5, align 8
  call void @_ZdlPv(ptr noundef %7) #19
  ret void
}

; Function Attrs: mustprogress nounwind uwtable
define internal void @_ZSt8_DestroyIZN5cmake8WorkflowERKNSt7__cxx1112basic_stringIcSt11char_traitsIcESaIcEEENS0_19WorkflowListPresetsENS0_13WorkflowFreshEE14CalculatedStepEvPT_(ptr noundef %0) #5 {
  %2 = alloca ptr, align 8
  store ptr %0, ptr %2, align 8
  %3 = load ptr, ptr %2, align 8
  call void @_ZZN5cmake8WorkflowERKNSt7__cxx1112basic_stringIcSt11char_traitsIcESaIcEEENS_19WorkflowListPresetsENS_13WorkflowFreshEEN14CalculatedStepD2Ev(ptr noundef nonnull align 8 dereferenceable(88) %3) #3
  ret void
}

; Function Attrs: mustprogress nounwind uwtable
define internal void @_ZNSaIZN5cmake8WorkflowERKNSt7__cxx1112basic_stringIcSt11char_traitsIcESaIcEEENS_19WorkflowListPresetsENS_13WorkflowFreshEE14CalculatedStepED2Ev(ptr noundef nonnull align 1 dereferenceable(1) %0) unnamed_addr #5 align 2 {
  %2 = alloca ptr, align 8
  store ptr %0, ptr %2, align 8
  %3 = load ptr, ptr %2, align 8
  call void @_ZNSt15__new_allocatorIZN5cmake8WorkflowERKNSt7__cxx1112basic_stringIcSt11char_traitsIcESaIcEEENS0_19WorkflowListPresetsENS0_13WorkflowFreshEE14CalculatedStepED2Ev(ptr noundef nonnull align 1 dereferenceable(1) %3) #3
  ret void
}

; Function Attrs: mustprogress uwtable
define internal void @_ZNSt16allocator_traitsISaIZN5cmake8WorkflowERKNSt7__cxx1112basic_stringIcSt11char_traitsIcESaIcEEENS0_19WorkflowListPresetsENS0_13WorkflowFreshEE14CalculatedStepEE10deallocateERSC_PSB_m(ptr noundef nonnull align 1 dereferenceable(1) %0, ptr noundef %1, i64 noundef %2) #4 align 2 {
  %4 = alloca ptr, align 8
  %5 = alloca ptr, align 8
  %6 = alloca i64, align 8
  store ptr %0, ptr %4, align 8
  store ptr %1, ptr %5, align 8
  store i64 %2, ptr %6, align 8
  %7 = load ptr, ptr %4, align 8
  %8 = load ptr, ptr %5, align 8
  %9 = load i64, ptr %6, align 8
  call void @_ZNSt15__new_allocatorIZN5cmake8WorkflowERKNSt7__cxx1112basic_stringIcSt11char_traitsIcESaIcEEENS0_19WorkflowListPresetsENS0_13WorkflowFreshEE14CalculatedStepE10deallocateEPSB_m(ptr noundef nonnull align 1 dereferenceable(1) %7, ptr noundef %8, i64 noundef %9)
  ret void
}

; Function Attrs: mustprogress uwtable
define internal void @_ZNSt12_Destroy_auxILb0EE9__destroyIPZN5cmake8WorkflowERKNSt7__cxx1112basic_stringIcSt11char_traitsIcESaIcEEENS2_19WorkflowListPresetsENS2_13WorkflowFreshEE14CalculatedStepEEvT_SF_(ptr noundef %0, ptr noundef %1) #4 align 2 {
  %3 = alloca ptr, align 8
  %4 = alloca ptr, align 8
  store ptr %0, ptr %3, align 8
  store ptr %1, ptr %4, align 8
  br label %5

5:                                                ; preds = %11, %2
  %6 = load ptr, ptr %3, align 8
  %7 = load ptr, ptr %4, align 8
  %8 = icmp ne ptr %6, %7
  br i1 %8, label %9, label %14

9:                                                ; preds = %5
  %10 = load ptr, ptr %3, align 8
  call void @_ZSt8_DestroyIZN5cmake8WorkflowERKNSt7__cxx1112basic_stringIcSt11char_traitsIcESaIcEEENS0_19WorkflowListPresetsENS0_13WorkflowFreshEE14CalculatedStepEvPT_(ptr noundef %10)
  br label %11

11:                                               ; preds = %9
  %12 = load ptr, ptr %3, align 8
  %13 = getelementptr inbounds %struct.CalculatedStep, ptr %12, i32 1
  store ptr %13, ptr %3, align 8
  br label %5, !llvm.loop !108

14:                                               ; preds = %5
  ret void
}

; Function Attrs: mustprogress nounwind uwtable
define internal void @_ZNSt12_Vector_baseIZN5cmake8WorkflowERKNSt7__cxx1112basic_stringIcSt11char_traitsIcESaIcEEENS0_19WorkflowListPresetsENS0_13WorkflowFreshEE14CalculatedStepSaISB_EE12_Vector_implD2Ev(ptr noundef nonnull align 8 dereferenceable(24) %0) unnamed_addr #5 align 2 {
  %2 = alloca ptr, align 8
  store ptr %0, ptr %2, align 8
  %3 = load ptr, ptr %2, align 8
  call void @_ZNSaIZN5cmake8WorkflowERKNSt7__cxx1112basic_stringIcSt11char_traitsIcESaIcEEENS_19WorkflowListPresetsENS_13WorkflowFreshEE14CalculatedStepED2Ev(ptr noundef nonnull align 1 dereferenceable(1) %3) #3
  ret void
}

; Function Attrs: mustprogress uwtable
define internal void @_ZNSt12_Vector_baseIZN5cmake8WorkflowERKNSt7__cxx1112basic_stringIcSt11char_traitsIcESaIcEEENS0_19WorkflowListPresetsENS0_13WorkflowFreshEE14CalculatedStepSaISB_EE13_M_deallocateEPSB_m(ptr noundef nonnull align 8 dereferenceable(24) %0, ptr noundef %1, i64 noundef %2) #4 align 2 {
  %4 = alloca ptr, align 8
  %5 = alloca ptr, align 8
  %6 = alloca i64, align 8
  store ptr %0, ptr %4, align 8
  store ptr %1, ptr %5, align 8
  store i64 %2, ptr %6, align 8
  %7 = load ptr, ptr %4, align 8
  %8 = load ptr, ptr %5, align 8
  %9 = icmp ne ptr %8, null
  br i1 %9, label %10, label %14

10:                                               ; preds = %3
  %11 = getelementptr inbounds %"struct.std::_Vector_base.1251", ptr %7, i32 0, i32 0
  %12 = load ptr, ptr %5, align 8
  %13 = load i64, ptr %6, align 8
  call void @_ZNSt16allocator_traitsISaIZN5cmake8WorkflowERKNSt7__cxx1112basic_stringIcSt11char_traitsIcESaIcEEENS0_19WorkflowListPresetsENS0_13WorkflowFreshEE14CalculatedStepEE10deallocateERSC_PSB_m(ptr noundef nonnull align 1 dereferenceable(1) %11, ptr noundef %12, i64 noundef %13)
  br label %14

14:                                               ; preds = %10, %3
  ret void
}

; Function Attrs: mustprogress uwtable
define internal void @_ZSt8_DestroyIPZN5cmake8WorkflowERKNSt7__cxx1112basic_stringIcSt11char_traitsIcESaIcEEENS0_19WorkflowListPresetsENS0_13WorkflowFreshEE14CalculatedStepEvT_SD_(ptr noundef %0, ptr noundef %1) #4 {
  %3 = alloca ptr, align 8
  %4 = alloca ptr, align 8
  store ptr %0, ptr %3, align 8
  store ptr %1, ptr %4, align 8
  %5 = load ptr, ptr %3, align 8
  %6 = load ptr, ptr %4, align 8
  call void @_ZNSt12_Destroy_auxILb0EE9__destroyIPZN5cmake8WorkflowERKNSt7__cxx1112basic_stringIcSt11char_traitsIcESaIcEEENS2_19WorkflowListPresetsENS2_13WorkflowFreshEE14CalculatedStepEEvT_SF_(ptr noundef %5, ptr noundef %6)
  ret void
}

; Function Attrs: mustprogress nounwind uwtable
define internal void @_ZNSt12_Vector_baseIZN5cmake8WorkflowERKNSt7__cxx1112basic_stringIcSt11char_traitsIcESaIcEEENS0_19WorkflowListPresetsENS0_13WorkflowFreshEE14CalculatedStepSaISB_EED2Ev(ptr noundef nonnull align 8 dereferenceable(24) %0) unnamed_addr #5 align 2 personality ptr @__gxx_personality_v0 {
  %2 = alloca ptr, align 8
  store ptr %0, ptr %2, align 8
  %3 = load ptr, ptr %2, align 8
  %4 = getelementptr inbounds %"struct.std::_Vector_base.1251", ptr %3, i32 0, i32 0
  %5 = getelementptr inbounds %"struct.std::_Vector_base<CalculatedStep, std::allocator<CalculatedStep>>::_Vector_impl_data", ptr %4, i32 0, i32 0
  %6 = load ptr, ptr %5, align 8
  %7 = getelementptr inbounds %"struct.std::_Vector_base.1251", ptr %3, i32 0, i32 0
  %8 = getelementptr inbounds %"struct.std::_Vector_base<CalculatedStep, std::allocator<CalculatedStep>>::_Vector_impl_data", ptr %7, i32 0, i32 2
  %9 = load ptr, ptr %8, align 8
  %10 = getelementptr inbounds %"struct.std::_Vector_base.1251", ptr %3, i32 0, i32 0
  %11 = getelementptr inbounds %"struct.std::_Vector_base<CalculatedStep, std::allocator<CalculatedStep>>::_Vector_impl_data", ptr %10, i32 0, i32 0
  %12 = load ptr, ptr %11, align 8
  %13 = ptrtoint ptr %9 to i64
  %14 = ptrtoint ptr %12 to i64
  %15 = sub i64 %13, %14
  %16 = sdiv exact i64 %15, 88
  invoke void @_ZNSt12_Vector_baseIZN5cmake8WorkflowERKNSt7__cxx1112basic_stringIcSt11char_traitsIcESaIcEEENS0_19WorkflowListPresetsENS0_13WorkflowFreshEE14CalculatedStepSaISB_EE13_M_deallocateEPSB_m(ptr noundef nonnull align 8 dereferenceable(24) %3, ptr noundef %6, i64 noundef %16)
          to label %17 unwind label %19

17:                                               ; preds = %1
  %18 = getelementptr inbounds %"struct.std::_Vector_base.1251", ptr %3, i32 0, i32 0
  call void @_ZNSt12_Vector_baseIZN5cmake8WorkflowERKNSt7__cxx1112basic_stringIcSt11char_traitsIcESaIcEEENS0_19WorkflowListPresetsENS0_13WorkflowFreshEE14CalculatedStepSaISB_EE12_Vector_implD2Ev(ptr noundef nonnull align 8 dereferenceable(24) %18) #3
  ret void

19:                                               ; preds = %1
  %20 = landingpad { ptr, i32 }
          catch ptr null
  %21 = extractvalue { ptr, i32 } %20, 0
  call void @__clang_call_terminate(ptr %21) #20
  unreachable
}

; Function Attrs: mustprogress uwtable
define internal void @_ZSt8_DestroyIPZN5cmake8WorkflowERKNSt7__cxx1112basic_stringIcSt11char_traitsIcESaIcEEENS0_19WorkflowListPresetsENS0_13WorkflowFreshEE14CalculatedStepSB_EvT_SD_RSaIT0_E(ptr noundef %0, ptr noundef %1, ptr noundef nonnull align 1 dereferenceable(1) %2) #4 {
  %4 = alloca ptr, align 8
  %5 = alloca ptr, align 8
  %6 = alloca ptr, align 8
  store ptr %0, ptr %4, align 8
  store ptr %1, ptr %5, align 8
  store ptr %2, ptr %6, align 8
  %7 = load ptr, ptr %4, align 8
  %8 = load ptr, ptr %5, align 8
  call void @_ZSt8_DestroyIPZN5cmake8WorkflowERKNSt7__cxx1112basic_stringIcSt11char_traitsIcESaIcEEENS0_19WorkflowListPresetsENS0_13WorkflowFreshEE14CalculatedStepEvT_SD_(ptr noundef %7, ptr noundef %8)
  ret void
}

; Function Attrs: mustprogress nounwind uwtable
define internal noundef nonnull align 1 dereferenceable(1) ptr @_ZNSt12_Vector_baseIZN5cmake8WorkflowERKNSt7__cxx1112basic_stringIcSt11char_traitsIcESaIcEEENS0_19WorkflowListPresetsENS0_13WorkflowFreshEE14CalculatedStepSaISB_EE19_M_get_Tp_allocatorEv(ptr noundef nonnull align 8 dereferenceable(24) %0) #5 align 2 {
  %2 = alloca ptr, align 8
  store ptr %0, ptr %2, align 8
  %3 = load ptr, ptr %2, align 8
  %4 = getelementptr inbounds %"struct.std::_Vector_base.1251", ptr %3, i32 0, i32 0
  ret ptr %4
}

; Function Attrs: mustprogress nounwind uwtable
define internal void @_ZNSt6vectorIZN5cmake8WorkflowERKNSt7__cxx1112basic_stringIcSt11char_traitsIcESaIcEEENS0_19WorkflowListPresetsENS0_13WorkflowFreshEE14CalculatedStepSaISB_EED2Ev(ptr noundef nonnull align 8 dereferenceable(24) %0) unnamed_addr #5 align 2 personality ptr @__gxx_personality_v0 {
  %2 = alloca ptr, align 8
  store ptr %0, ptr %2, align 8
  %3 = load ptr, ptr %2, align 8
  %4 = getelementptr inbounds %"struct.std::_Vector_base.1251", ptr %3, i32 0, i32 0
  %5 = getelementptr inbounds %"struct.std::_Vector_base<CalculatedStep, std::allocator<CalculatedStep>>::_Vector_impl_data", ptr %4, i32 0, i32 0
  %6 = load ptr, ptr %5, align 8
  %7 = getelementptr inbounds %"struct.std::_Vector_base.1251", ptr %3, i32 0, i32 0
  %8 = getelementptr inbounds %"struct.std::_Vector_base<CalculatedStep, std::allocator<CalculatedStep>>::_Vector_impl_data", ptr %7, i32 0, i32 1
  %9 = load ptr, ptr %8, align 8
  %10 = call noundef nonnull align 1 dereferenceable(1) ptr @_ZNSt12_Vector_baseIZN5cmake8WorkflowERKNSt7__cxx1112basic_stringIcSt11char_traitsIcESaIcEEENS0_19WorkflowListPresetsENS0_13WorkflowFreshEE14CalculatedStepSaISB_EE19_M_get_Tp_allocatorEv(ptr noundef nonnull align 8 dereferenceable(24) %3) #3
  invoke void @_ZSt8_DestroyIPZN5cmake8WorkflowERKNSt7__cxx1112basic_stringIcSt11char_traitsIcESaIcEEENS0_19WorkflowListPresetsENS0_13WorkflowFreshEE14CalculatedStepSB_EvT_SD_RSaIT0_E(ptr noundef %6, ptr noundef %9, ptr noundef nonnull align 1 dereferenceable(1) %10)
          to label %11 unwind label %12

11:                                               ; preds = %1
  call void @_ZNSt12_Vector_baseIZN5cmake8WorkflowERKNSt7__cxx1112basic_stringIcSt11char_traitsIcESaIcEEENS0_19WorkflowListPresetsENS0_13WorkflowFreshEE14CalculatedStepSaISB_EED2Ev(ptr noundef nonnull align 8 dereferenceable(24) %3) #3
  ret void

12:                                               ; preds = %1
  %13 = landingpad { ptr, i32 }
          catch ptr null
  %14 = extractvalue { ptr, i32 } %13, 0
  call void @__clang_call_terminate(ptr %14) #20
  unreachable
}